target datalayout = "e-m:e-p270:32:32-p271:32:32-p272:64:64-i64:64-i128:128-f80:128-n8:16:32:64-S128"
target triple = "x86_64-pc-linux-gnu"

%struct.DES_ks = type { [16 x %union.anon] }
%union.anon = type { [2 x i32] }

@.str.24 = private unnamed_addr constant [26 x i8] c"../openssl/test/destest.c\00", align 1
@.str.32 = private unnamed_addr constant [35 x i8] c"DES_set_key_checked(&cbc_key, &ks)\00", align 1
@.str.33 = private unnamed_addr constant [2 x i8] c"0\00", align 1
@cbc_key = internal global [8 x i8] c"\01#Eg\89\AB\CD\EF", align 1
@cbc_iv = internal global [8 x i8] c"\FE\DC\BA\98vT2\10", align 1
@cbc_data = internal global <{ [30 x i8], [10 x i8] }> <{ [30 x i8] c"7654321 Now is the time for \001", [10 x i8] zeroinitializer }>, align 16

; Function Attrs: nounwind uwtable
define internal i32 @test_input_align(i32 noundef %0) #0 {
  %2 = alloca i32, align 4
  %3 = alloca i32, align 4
  %4 = alloca [40 x i8], align 16
  %5 = alloca [8 x i8], align 1
  %6 = alloca %struct.DES_ks, align 4
  %7 = alloca i64, align 8
  %8 = alloca i32, align 4
  store i32 %0, ptr %3, align 4, !tbaa !4
  call void @llvm.lifetime.start.p0(i64 40, ptr %4) #6
  call void @llvm.lifetime.start.p0(i64 8, ptr %5) #6
  call void @llvm.lifetime.start.p0(i64 128, ptr %6) #6
  call void @llvm.lifetime.start.p0(i64 8, ptr %7) #6
  %9 = load i32, ptr %3, align 4, !tbaa !4
  %10 = sext i32 %9 to i64
  %11 = getelementptr inbounds i8, ptr @cbc_data, i64 %10
  %12 = call i64 @strlen(ptr noundef %11) #7
  %13 = add i64 %12, 1
  store i64 %13, ptr %7, align 8, !tbaa !8
  %14 = getelementptr inbounds [40 x i8], ptr %4, i64 0, i64 0
  call void @llvm.memset.p0.i64(ptr align 16 %14, i8 0, i64 40, i1 false)
  %15 = getelementptr inbounds [8 x i8], ptr %5, i64 0, i64 0
  call void @llvm.memcpy.p0.p0.i64(ptr align 1 %15, ptr align 1 @cbc_iv, i64 8, i1 false)
  %16 = call i32 @DES_set_key_checked(ptr noundef @cbc_key, ptr noundef %6)
  %17 = call i32 @test_int_eq(ptr noundef @.str.24, i32 noundef 460, ptr noundef @.str.32, ptr noundef @.str.33, i32 noundef %16, i32 noundef 0)
  %18 = icmp ne i32 %17, 0
  br i1 %18, label %20, label %19

19:                                               ; preds = %1
  store i32 0, ptr %2, align 4
  store i32 1, ptr %8, align 4
  br label %26

20:                                               ; preds = %1
  %21 = load i32, ptr %3, align 4, !tbaa !4
  %22 = sext i32 %21 to i64
  %23 = getelementptr inbounds [40 x i8], ptr @cbc_data, i64 0, i64 %22
  %24 = getelementptr inbounds [40 x i8], ptr %4, i64 0, i64 0
  %25 = load i64, ptr %7, align 8, !tbaa !8
  call void @DES_ncbc_encrypt(ptr noundef %23, ptr noundef %24, i64 noundef %25, ptr noundef %6, ptr noundef %5, i32 noundef 1)
  store i32 1, ptr %2, align 4
  store i32 1, ptr %8, align 4
  br label %26

26:                                               ; preds = %20, %19
  call void @llvm.lifetime.end.p0(i64 8, ptr %7) #6
  call void @llvm.lifetime.end.p0(i64 128, ptr %6) #6
  call void @llvm.lifetime.end.p0(i64 8, ptr %5) #6
  call void @llvm.lifetime.end.p0(i64 40, ptr %4) #6
  %27 = load i32, ptr %2, align 4
  ret i32 %27
}